target datalayout = "e-m:e-p270:32:32-p271:32:32-p272:64:64-i64:64-i128:128-f80:128-n8:16:32:64-S128"
target triple = "x86_64-pc-linux-gnu"

%struct.darktable_t = type { %struct.dt_codepath_t, i32, i32, ptr, ptr, ptr, ptr, ptr, ptr, ptr, ptr, ptr, ptr, ptr, ptr, ptr, ptr, ptr, ptr, ptr, ptr, ptr, ptr, ptr, ptr, ptr, ptr, ptr, ptr, ptr, [64 x %struct.dt_pthread_mutex_t], %struct.dt_pthread_mutex_t, %struct.dt_pthread_mutex_t, %struct.dt_pthread_mutex_t, %struct.dt_pthread_mutex_t, %struct.dt_pthread_mutex_t, ptr, ptr, ptr, ptr, ptr, ptr, ptr, ptr, ptr, ptr, ptr, ptr, ptr, %struct.dt_lua_state_t, ptr, double, ptr, i32, [47 x i32], i32, i32, ptr, ptr, %struct.dt_sys_resources_t, %struct.dt_backthumb_t, %struct.dt_gimp_t }
%struct.dt_codepath_t = type { i8, [3 x i8] }
%struct.dt_pthread_mutex_t = type { %union.pthread_mutex_t }
%union.pthread_mutex_t = type { %struct.__pthread_mutex_s }
%struct.__pthread_mutex_s = type { i32, i32, i32, i32, i32, i16, i16, %struct.__pthread_internal_list }
%struct.__pthread_internal_list = type { ptr, ptr }
%struct.dt_lua_state_t = type { i32 }
%struct.dt_sys_resources_t = type { i64, i64, ptr, ptr, i32 }
%struct.dt_backthumb_t = type { double, double, i32, i32, i32, i32 }
%struct.dt_gimp_t = type { i32, ptr, ptr, i32, i32 }
%struct.dt_dev_pixelpipe_t = type { %struct.dt_dev_pixelpipe_cache_t, i32, i64, ptr, i32, i32, float, i32, i32, [12 x i8], %struct.dt_iop_buffer_dsc_t, ptr, ptr, ptr, ptr, i32, i32, i32, i32, ptr, i64, i32, i32, float, float, float, i64, %struct.dt_pthread_mutex_t, %struct.dt_pthread_mutex_t, %struct.dt_pthread_mutex_t, i32, i32, i32, %struct.dt_dev_detail_mask_t, i32, i32, i32, i32, i32, i32, i32, i32, i32, i32, i32, i32, i32, i32, [8 x i8], %struct.dt_image_t, i32, ptr, i32, ptr, ptr, ptr, i32, ptr, i64, [8 x i8] }
%struct.dt_dev_pixelpipe_cache_t = type { i32, i64, i64, ptr, ptr, ptr, ptr, ptr, ptr, i64, i32, i64, i64, i32, i32, i32 }
%struct.dt_iop_buffer_dsc_t = type { i32, i32, i32, [6 x [6 x i8]], %struct.anon, [12 x i8], %struct.anon.0, [4 x float], i32, [12 x i8] }
%struct.anon = type { i16, i16 }
%struct.anon.0 = type { i32, [12 x i8], [4 x float] }
%struct.dt_dev_detail_mask_t = type { %struct.dt_iop_roi_t, i64, ptr }
%struct.dt_iop_roi_t = type { i32, i32, i32, i32, float }
%struct.dt_image_t = type { i32, i32, float, float, float, float, float, float, float, [64 x i8], [64 x i8], [128 x i8], [64 x i8], [64 x i8], [64 x i8], [64 x i8], i64, i32, %union.dt_image_correction_data_t, [64 x i8], [64 x i8], [64 x i8], [128 x i8], i32, [256 x i8], i32, i32, i32, i32, i32, i32, i32, i32, i32, i32, float, i32, i32, i32, i32, i32, i32, i64, i64, i64, i64, i32, [12 x i8], %struct.dt_iop_buffer_dsc_t, [9 x float], ptr, i32, i32, %struct.dt_image_raw_parameters_t, %struct.dt_image_geoloc_t, %struct._color_harmony_t, i16, [4 x i16], i32, i32, float, float, [4 x float], [4 x [3 x float]], [4 x float], ptr, ptr, i32, i32, [8 x i8] }
%union.dt_image_correction_data_t = type { %struct.anon.2 }
%struct.anon.2 = type { i32, float, [11 x float], [11 x float], [11 x float], [11 x float], [11 x float] }
%struct.dt_image_raw_parameters_t = type { i32 }
%struct.dt_image_geoloc_t = type { double, double, double }
%struct._color_harmony_t = type { i32, i32, i32 }
%struct._GList = type { ptr, ptr, ptr }
%struct.dt_dev_pixelpipe_iop_t = type { ptr, ptr, ptr, ptr, i32, i32, %struct.dt_dev_histogram_collection_params_t, ptr, %struct.dt_dev_histogram_stats_t, [4 x i32], float, i32, i32, i64, i32, i32, %struct.dt_iop_roi_t, %struct.dt_iop_roi_t, %struct.dt_iop_roi_t, %struct.dt_iop_roi_t, i32, i32, %struct.dt_iop_buffer_dsc_t, %struct.dt_iop_buffer_dsc_t, ptr, [8 x i8] }
%struct.dt_dev_histogram_collection_params_t = type { ptr, i32 }
%struct.dt_dev_histogram_stats_t = type { i32, i64, i32, i32 }
%struct.dt_iop_module_t = type { i32, ptr, ptr, ptr, ptr, ptr, ptr, ptr, ptr, ptr, ptr, ptr, ptr, ptr, ptr, ptr, ptr, ptr, ptr, ptr, ptr, ptr, ptr, ptr, ptr, ptr, ptr, ptr, ptr, ptr, ptr, ptr, ptr, ptr, ptr, ptr, ptr, ptr, ptr, ptr, ptr, ptr, ptr, ptr, ptr, ptr, ptr, ptr, ptr, ptr, ptr, ptr, ptr, ptr, ptr, ptr, ptr, [20 x i8], i32, i32, i32, i32, i32, i32, i32, [8 x i8], [4 x float], [4 x float], [4 x float], [4 x float], [4 x float], [4 x float], ptr, %struct.dt_dev_histogram_stats_t, [4 x i32], i32, i32, ptr, i32, i32, ptr, ptr, i32, ptr, %struct.dt_pthread_mutex_t, ptr, ptr, ptr, ptr, %struct.anon.5, ptr, ptr, ptr, ptr, ptr, ptr, ptr, i32, ptr, ptr, ptr, ptr, ptr, ptr, ptr, i32, ptr, i32, [128 x i8], i32, ptr, ptr, i32, [12 x i8] }
%struct.anon.5 = type { %struct.anon.6, %struct.anon.7 }
%struct.anon.6 = type { ptr, ptr }
%struct.anon.7 = type { ptr, i32 }
%struct.dt_lib_t = type { ptr, ptr, %struct.anon.17 }
%struct.anon.17 = type { %struct.anon.18, %struct.anon.19, %struct.anon.20, %struct.anon.21 }
%struct.anon.18 = type { ptr, ptr, ptr, ptr, ptr, i32, i32, i32, ptr, ptr, ptr, ptr, ptr }
%struct.anon.19 = type { ptr, ptr, i32 }
%struct.anon.20 = type { ptr }
%struct.anon.21 = type { i32 }
%struct.dt_colorpicker_sample_t = type { [2 x float], [8 x float], i32, i32, i32, i32, i32, [4 x i8], [3 x [4 x float]], [3 x [4 x float]], [3 x [4 x float]], [4 x i32], %struct._GdkRGBA, ptr, ptr, ptr, [8 x i8] }
%struct._GdkRGBA = type { double, double, double, double }

@darktable = external global %struct.darktable_t, align 8

; Function Attrs: inlinehint nounwind uwtable
define internal i64 @dt_hash(i64 noundef %0, ptr noundef %1, i64 noundef %2) #6 {
  %4 = alloca i64, align 8
  %5 = alloca ptr, align 8
  %6 = alloca i64, align 8
  %7 = alloca ptr, align 8
  %8 = alloca i64, align 8
  store i64 %0, ptr %4, align 8, !tbaa !13
  store ptr %1, ptr %5, align 8, !tbaa !33
  store i64 %2, ptr %6, align 8, !tbaa !13
  call void @llvm.lifetime.start.p0(i64 8, ptr %7) #17
  %9 = load ptr, ptr %5, align 8, !tbaa !33
  store ptr %9, ptr %7, align 8, !tbaa !130
  call void @llvm.lifetime.start.p0(i64 8, ptr %8) #17
  store i64 0, ptr %8, align 8, !tbaa !13
  br label %10

10:                                               ; preds = %26, %3
  %11 = load i64, ptr %8, align 8, !tbaa !13
  %12 = load i64, ptr %6, align 8, !tbaa !13
  %13 = icmp ult i64 %11, %12
  br i1 %13, label %15, label %14

14:                                               ; preds = %10
  call void @llvm.lifetime.end.p0(i64 8, ptr %8) #17
  br label %29

15:                                               ; preds = %10
  %16 = load i64, ptr %4, align 8, !tbaa !13
  %17 = shl i64 %16, 5
  %18 = load i64, ptr %4, align 8, !tbaa !13
  %19 = add i64 %17, %18
  %20 = load ptr, ptr %7, align 8, !tbaa !130
  %21 = load i64, ptr %8, align 8, !tbaa !13
  %22 = getelementptr inbounds nuw i8, ptr %20, i64 %21
  %23 = load i8, ptr %22, align 1, !tbaa !131
  %24 = zext i8 %23 to i64
  %25 = xor i64 %19, %24
  store i64 %25, ptr %4, align 8, !tbaa !13
  br label %26

26:                                               ; preds = %15
  %27 = load i64, ptr %8, align 8, !tbaa !13
  %28 = add i64 %27, 1
  store i64 %28, ptr %8, align 8, !tbaa !13
  br label %10

29:                                               ; preds = %14
  %30 = load i64, ptr %4, align 8, !tbaa !13
  call void @llvm.lifetime.end.p0(i64 8, ptr %7) #17
  ret i64 %30
}

; Function Attrs: nounwind uwtable
define internal i64 @_dev_pixelpipe_cache_basichash(i32 noundef %0, ptr noundef %1, i32 noundef %2) #0 {
  %4 = alloca i32, align 4
  %5 = alloca ptr, align 8
  %6 = alloca i32, align 4
  %7 = alloca [3 x i32], align 4
  %8 = alloca i64, align 8
  %9 = alloca ptr, align 8
  %10 = alloca ptr, align 8
  %11 = alloca ptr, align 8
  %12 = alloca i32, align 4
  %13 = alloca i32, align 4
  store i32 %0, ptr %4, align 4, !tbaa !11
  store ptr %1, ptr %5, align 8, !tbaa !6
  store i32 %2, ptr %6, align 4, !tbaa !11
  call void @llvm.lifetime.start.p0(i64 12, ptr %7) #17
  %14 = load i32, ptr %4, align 4, !tbaa !11
  store i32 %14, ptr %7, align 4, !tbaa !11
  %15 = getelementptr inbounds i32, ptr %7, i64 1
  %16 = load ptr, ptr %5, align 8, !tbaa !6
  %17 = getelementptr inbounds nuw %struct.dt_dev_pixelpipe_t, ptr %16, i32 0, i32 45
  %18 = load i32, ptr %17, align 4, !tbaa !34
  store i32 %18, ptr %15, align 4, !tbaa !11
  %19 = getelementptr inbounds i32, ptr %7, i64 2
  %20 = load ptr, ptr %5, align 8, !tbaa !6
  %21 = getelementptr inbounds nuw %struct.dt_dev_pixelpipe_t, ptr %20, i32 0, i32 32
  %22 = load i32, ptr %21, align 16, !tbaa !89
  store i32 %22, ptr %19, align 4, !tbaa !11
  call void @llvm.lifetime.start.p0(i64 8, ptr %8) #17
  %23 = call i64 @dt_hash(i64 noundef 5381, ptr noundef %7, i64 noundef 12)
  store i64 %23, ptr %8, align 8, !tbaa !13
  call void @llvm.lifetime.start.p0(i64 8, ptr %9) #17
  %24 = load ptr, ptr %5, align 8, !tbaa !6
  %25 = getelementptr inbounds nuw %struct.dt_dev_pixelpipe_t, ptr %24, i32 0, i32 14
  %26 = load ptr, ptr %25, align 8, !tbaa !90
  store ptr %26, ptr %9, align 8, !tbaa !91
  br label %27

27:                                               ; preds = %123, %3
  %28 = load ptr, ptr %9, align 8, !tbaa !91
  %29 = icmp ne ptr %28, null
  br i1 %29, label %30, label %124

30:                                               ; preds = %27
  call void @llvm.lifetime.start.p0(i64 8, ptr %10) #17
  %31 = load ptr, ptr %9, align 8, !tbaa !91
  %32 = getelementptr inbounds nuw %struct._GList, ptr %31, i32 0, i32 0
  %33 = load ptr, ptr %32, align 8, !tbaa !92
  store ptr %33, ptr %10, align 8, !tbaa !94
  call void @llvm.lifetime.start.p0(i64 8, ptr %11) #17
  %34 = load ptr, ptr %10, align 8, !tbaa !94
  %35 = getelementptr inbounds nuw %struct.dt_dev_pixelpipe_iop_t, ptr %34, i32 0, i32 0
  %36 = load ptr, ptr %35, align 16, !tbaa !96
  store ptr %36, ptr %11, align 8, !tbaa !103
  %37 = load ptr, ptr %11, align 8, !tbaa !103
  %38 = getelementptr inbounds nuw %struct.dt_iop_module_t, ptr %37, i32 0, i32 59
  %39 = load i32, ptr %38, align 16, !tbaa !104
  %40 = load i32, ptr %6, align 4, !tbaa !11
  %41 = icmp sgt i32 %39, %40
  br i1 %41, label %42, label %43

42:                                               ; preds = %30
  store i32 3, ptr %12, align 4
  br label %121

43:                                               ; preds = %30
  call void @llvm.lifetime.start.p0(i64 4, ptr %13) #17
  %44 = load ptr, ptr %11, align 8, !tbaa !103
  %45 = getelementptr inbounds nuw %struct.dt_iop_module_t, ptr %44, i32 0, i32 77
  %46 = load ptr, ptr %45, align 8, !tbaa !114
  %47 = load ptr, ptr %11, align 8, !tbaa !103
  %48 = call i32 @dt_iop_module_is_skipped(ptr noundef %46, ptr noundef %47)
  %49 = icmp ne i32 %48, 0
  br i1 %49, label %50, label %56

50:                                               ; preds = %43
  %51 = load ptr, ptr %5, align 8, !tbaa !6
  %52 = getelementptr inbounds nuw %struct.dt_dev_pixelpipe_t, ptr %51, i32 0, i32 45
  %53 = load i32, ptr %52, align 4, !tbaa !34
  %54 = and i32 %53, 6
  %55 = icmp ne i32 %54, 0
  br label %56

56:                                               ; preds = %50, %43
  %57 = phi i1 [ false, %43 ], [ %55, %50 ]
  %58 = zext i1 %57 to i32
  store i32 %58, ptr %13, align 4, !tbaa !11
  %59 = load i32, ptr %13, align 4, !tbaa !11
  %60 = icmp ne i32 %59, 0
  br i1 %60, label %111, label %61

61:                                               ; preds = %56
  %62 = load i64, ptr %8, align 8, !tbaa !13
  %63 = load ptr, ptr %10, align 8, !tbaa !94
  %64 = getelementptr inbounds nuw %struct.dt_dev_pixelpipe_iop_t, ptr %63, i32 0, i32 13
  %65 = call i64 @dt_hash(i64 noundef %62, ptr noundef %64, i64 noundef 8)
  store i64 %65, ptr %8, align 8, !tbaa !13
  %66 = load ptr, ptr %11, align 8, !tbaa !103
  %67 = getelementptr inbounds nuw %struct.dt_iop_module_t, ptr %66, i32 0, i32 61
  %68 = load i32, ptr %67, align 8, !tbaa !115
  %69 = icmp ne i32 %68, 0
  br i1 %69, label %70, label %110

70:                                               ; preds = %61
  %71 = load ptr, ptr getelementptr inbounds nuw (%struct.darktable_t, ptr @darktable, i32 0, i32 10), align 8, !tbaa !116
  %72 = getelementptr inbounds nuw %struct.dt_lib_t, ptr %71, i32 0, i32 2
  %73 = getelementptr inbounds nuw %struct.anon.17, ptr %72, i32 0, i32 0
  %74 = getelementptr inbounds nuw %struct.anon.18, ptr %73, i32 0, i32 1
  %75 = load ptr, ptr %74, align 8, !tbaa !117
  %76 = getelementptr inbounds nuw %struct.dt_colorpicker_sample_t, ptr %75, i32 0, i32 2
  %77 = load i32, ptr %76, align 8, !tbaa !126
  %78 = icmp eq i32 %77, 1
  br i1 %78, label %79, label %89

79:                                               ; preds = %70
  %80 = load i64, ptr %8, align 8, !tbaa !13
  %81 = load ptr, ptr getelementptr inbounds nuw (%struct.darktable_t, ptr @darktable, i32 0, i32 10), align 8, !tbaa !116
  %82 = getelementptr inbounds nuw %struct.dt_lib_t, ptr %81, i32 0, i32 2
  %83 = getelementptr inbounds nuw %struct.anon.17, ptr %82, i32 0, i32 0
  %84 = getelementptr inbounds nuw %struct.anon.18, ptr %83, i32 0, i32 1
  %85 = load ptr, ptr %84, align 8, !tbaa !117
  %86 = getelementptr inbounds nuw %struct.dt_colorpicker_sample_t, ptr %85, i32 0, i32 1
  %87 = getelementptr inbounds [8 x float], ptr %86, i64 0, i64 0
  %88 = call i64 @dt_hash(i64 noundef %80, ptr noundef %87, i64 noundef 32)
  store i64 %88, ptr %8, align 8, !tbaa !13
  br label %109

89:                                               ; preds = %70
  %90 = load ptr, ptr getelementptr inbounds nuw (%struct.darktable_t, ptr @darktable, i32 0, i32 10), align 8, !tbaa !116
  %91 = getelementptr inbounds nuw %struct.dt_lib_t, ptr %90, i32 0, i32 2
  %92 = getelementptr inbounds nuw %struct.anon.17, ptr %91, i32 0, i32 0
  %93 = getelementptr inbounds nuw %struct.anon.18, ptr %92, i32 0, i32 1
  %94 = load ptr, ptr %93, align 8, !tbaa !117
  %95 = getelementptr inbounds nuw %struct.dt_colorpicker_sample_t, ptr %94, i32 0, i32 2
  %96 = load i32, ptr %95, align 8, !tbaa !126
  %97 = icmp eq i32 %96, 0
  br i1 %97, label %98, label %108

98:                                               ; preds = %89
  %99 = load i64, ptr %8, align 8, !tbaa !13
  %100 = load ptr, ptr getelementptr inbounds nuw (%struct.darktable_t, ptr @darktable, i32 0, i32 10), align 8, !tbaa !116
  %101 = getelementptr inbounds nuw %struct.dt_lib_t, ptr %100, i32 0, i32 2
  %102 = getelementptr inbounds nuw %struct.anon.17, ptr %101, i32 0, i32 0
  %103 = getelementptr inbounds nuw %struct.anon.18, ptr %102, i32 0, i32 1
  %104 = load ptr, ptr %103, align 8, !tbaa !117
  %105 = getelementptr inbounds nuw %struct.dt_colorpicker_sample_t, ptr %104, i32 0, i32 0
  %106 = getelementptr inbounds [2 x float], ptr %105, i64 0, i64 0
  %107 = call i64 @dt_hash(i64 noundef %99, ptr noundef %106, i64 noundef 8)
  store i64 %107, ptr %8, align 8, !tbaa !13
  br label %108

108:                                              ; preds = %98, %89
  br label %109

109:                                              ; preds = %108, %79
  br label %110

110:                                              ; preds = %109, %61
  br label %111

111:                                              ; preds = %110, %56
  %112 = load ptr, ptr %9, align 8, !tbaa !91
  %113 = icmp ne ptr %112, null
  br i1 %113, label %114, label %118

114:                                              ; preds = %111
  %115 = load ptr, ptr %9, align 8, !tbaa !91
  %116 = getelementptr inbounds nuw %struct._GList, ptr %115, i32 0, i32 1
  %117 = load ptr, ptr %116, align 8, !tbaa !129
  br label %119

118:                                              ; preds = %111
  br label %119

119:                                              ; preds = %118, %114
  %120 = phi ptr [ %117, %114 ], [ null, %118 ]
  store ptr %120, ptr %9, align 8, !tbaa !91
  call void @llvm.lifetime.end.p0(i64 4, ptr %13) #17
  store i32 0, ptr %12, align 4
  br label %121

121:                                              ; preds = %119, %42
  call void @llvm.lifetime.end.p0(i64 8, ptr %11) #17
  call void @llvm.lifetime.end.p0(i64 8, ptr %10) #17
  %122 = load i32, ptr %12, align 4
  switch i32 %122, label %126 [
    i32 0, label %123
    i32 3, label %124
  ]

123:                                              ; preds = %121
  br label %27

124:                                              ; preds = %121, %27
  %125 = load i64, ptr %8, align 8, !tbaa !13
  store i32 1, ptr %12, align 4
  call void @llvm.lifetime.end.p0(i64 8, ptr %9) #17
  call void @llvm.lifetime.end.p0(i64 8, ptr %8) #17
  call void @llvm.lifetime.end.p0(i64 12, ptr %7) #17
  ret i64 %125

126:                                              ; preds = %121
  unreachable
}

; Function Attrs: nounwind uwtable
define i64 @dt_dev_pixelpipe_cache_hash(i32 noundef %0, ptr noundef %1, ptr noundef %2, i32 noundef %3) #0 {
  %5 = alloca i32, align 4
  %6 = alloca ptr, align 8
  %7 = alloca ptr, align 8
  %8 = alloca i32, align 4
  %9 = alloca i64, align 8
  store i32 %0, ptr %5, align 4, !tbaa !11
  store ptr %1, ptr %6, align 8, !tbaa !87
  store ptr %2, ptr %7, align 8, !tbaa !6
  store i32 %3, ptr %8, align 4, !tbaa !11
  call void @llvm.lifetime.start.p0(i64 8, ptr %9) #17
  %10 = load i32, ptr %5, align 4, !tbaa !11
  %11 = load ptr, ptr %7, align 8, !tbaa !6
  %12 = load i32, ptr %8, align 4, !tbaa !11
  %13 = call i64 @_dev_pixelpipe_cache_basichash(i32 noundef %10, ptr noundef %11, i32 noundef %12)
  store i64 %13, ptr %9, align 8, !tbaa !13
  %14 = load i64, ptr %9, align 8, !tbaa !13
  %15 = load ptr, ptr %6, align 8, !tbaa !87
  %16 = call i64 @dt_hash(i64 noundef %14, ptr noundef %15, i64 noundef 20)
  store i64 %16, ptr %9, align 8, !tbaa !13
  %17 = load i64, ptr %9, align 8, !tbaa !13
  %18 = load ptr, ptr %7, align 8, !tbaa !6
  %19 = getelementptr inbounds nuw %struct.dt_dev_pixelpipe_t, ptr %18, i32 0, i32 33
  %20 = getelementptr inbounds nuw %struct.dt_dev_detail_mask_t, ptr %19, i32 0, i32 1
  %21 = call i64 @dt_hash(i64 noundef %17, ptr noundef %20, i64 noundef 8)
  call void @llvm.lifetime.end.p0(i64 8, ptr %9) #17
  ret i64 %21
}