; Function Attrs: nounwind uwtable
define i64 @dt_dev_pixelpipe_cache_hash(i32 noundef %0, ptr noundef readonly captures(none) %1, ptr noundef readonly captures(none) %2, i32 noundef %3) local_unnamed_addr #0 {
  %5 = alloca [3 x i32], align 4
  call void @llvm.lifetime.start.p0(i64 12, ptr nonnull %5) #27
  store i32 %0, ptr %5, align 4, !tbaa !26
  %6 = getelementptr inbounds nuw i8, ptr %5, i64 4
  %7 = getelementptr inbounds nuw i8, ptr %2, i64 620
  %8 = load i32, ptr %7, align 4, !tbaa !28
  store i32 %8, ptr %6, align 4, !tbaa !26
  %9 = getelementptr inbounds nuw i8, ptr %5, i64 8
  %10 = getelementptr inbounds nuw i8, ptr %2, i64 528
  %11 = load i32, ptr %10, align 16, !tbaa !83
  store i32 %11, ptr %9, align 4, !tbaa !26
  br label %.lr.ph.i.i

.lr.ph.i.i:                                       ; preds = %.lr.ph.i.i, %4
  %.010.i.i = phi i64 [ %17, %.lr.ph.i.i ], [ 0, %4 ]
  %.089.i.i = phi i64 [ %16, %.lr.ph.i.i ], [ 5381, %4 ]
  %12 = mul i64 %.089.i.i, 33
  %13 = getelementptr inbounds nuw i8, ptr %5, i64 %.010.i.i
  %14 = load i8, ptr %13, align 1, !tbaa !84
  %15 = zext i8 %14 to i64
  %16 = xor i64 %12, %15
  %17 = add nuw nsw i64 %.010.i.i, 1
  %exitcond.not.i.i = icmp eq i64 %17, 12
  br i1 %exitcond.not.i.i, label %dt_hash.exit.i, label %.lr.ph.i.i

dt_hash.exit.i:                                   ; preds = %.lr.ph.i.i
  %18 = getelementptr inbounds nuw i8, ptr %2, i64 328
  %.02251.i = load ptr, ptr %18, align 8, !tbaa !85
  %.not52.i = icmp eq ptr %.02251.i, null
  br i1 %.not52.i, label %_dev_pixelpipe_cache_basichash.exit, label %.lr.ph.i

.lr.ph.i:                                         ; preds = %dt_hash.exit.i, %.loopexit.i
  %.02254.i = phi ptr [ %.022.i, %.loopexit.i ], [ %.02251.i, %dt_hash.exit.i ]
  %.053.i = phi i64 [ %.3.i, %.loopexit.i ], [ %16, %dt_hash.exit.i ]
  %19 = load ptr, ptr %.02254.i, align 8, !tbaa !86
  %20 = load ptr, ptr %19, align 16, !tbaa !88
  %21 = getelementptr inbounds nuw i8, ptr %20, i64 480
  %22 = load i32, ptr %21, align 16, !tbaa !96
  %23 = icmp sgt i32 %22, %3
  br i1 %23, label %_dev_pixelpipe_cache_basichash.exit, label %24

24:                                               ; preds = %.lr.ph.i
  %25 = getelementptr inbounds nuw i8, ptr %20, i64 664
  %26 = load ptr, ptr %25, align 8, !tbaa !106
  %27 = tail call i32 @dt_iop_module_is_skipped(ptr noundef %26, ptr noundef nonnull %20) #27
  %.not25.i = icmp eq i32 %27, 0
  br i1 %.not25.i, label %.critedge.i, label %28

28:                                               ; preds = %24
  %29 = load i32, ptr %7, align 4, !tbaa !28
  %30 = and i32 %29, 6
  %.not46.i = icmp eq i32 %30, 0
  br i1 %.not46.i, label %.critedge.i, label %.loopexit.i

.critedge.i:                                      ; preds = %28, %24
  %31 = getelementptr inbounds nuw i8, ptr %19, i64 120
  br label %.lr.ph.i27.i

.lr.ph.i27.i:                                     ; preds = %.lr.ph.i27.i, %.critedge.i
  %.010.i28.i = phi i64 [ %37, %.lr.ph.i27.i ], [ 0, %.critedge.i ]
  %.089.i29.i = phi i64 [ %36, %.lr.ph.i27.i ], [ %.053.i, %.critedge.i ]
  %32 = mul i64 %.089.i29.i, 33
  %33 = getelementptr inbounds nuw i8, ptr %31, i64 %.010.i28.i
  %34 = load i8, ptr %33, align 1, !tbaa !84
  %35 = zext i8 %34 to i64
  %36 = xor i64 %32, %35
  %37 = add nuw nsw i64 %.010.i28.i, 1
  %exitcond.not.i30.i = icmp eq i64 %37, 8
  br i1 %exitcond.not.i30.i, label %dt_hash.exit31.i, label %.lr.ph.i27.i

dt_hash.exit31.i:                                 ; preds = %.lr.ph.i27.i
  %38 = getelementptr inbounds nuw i8, ptr %20, i64 488
  %39 = load i32, ptr %38, align 8, !tbaa !107
  %.not26.i = icmp eq i32 %39, 0
  br i1 %.not26.i, label %.loopexit.i, label %40

40:                                               ; preds = %dt_hash.exit31.i
  %41 = load ptr, ptr getelementptr inbounds nuw (i8, ptr @darktable, i64 72), align 8, !tbaa !108
  %42 = getelementptr inbounds nuw i8, ptr %41, i64 24
  %43 = load ptr, ptr %42, align 8, !tbaa !109
  %44 = getelementptr inbounds nuw i8, ptr %43, i64 40
  %45 = load i32, ptr %44, align 8, !tbaa !118
  switch i32 %45, label %.loopexit.i [
    i32 1, label %46
    i32 0, label %.lr.ph.i37.i
  ]

46:                                               ; preds = %40
  %47 = getelementptr inbounds nuw i8, ptr %43, i64 8
  br label %.lr.ph.i32.i

.lr.ph.i32.i:                                     ; preds = %.lr.ph.i32.i, %46
  %.010.i33.i = phi i64 [ %53, %.lr.ph.i32.i ], [ 0, %46 ]
  %.089.i34.i = phi i64 [ %52, %.lr.ph.i32.i ], [ %36, %46 ]
  %48 = mul i64 %.089.i34.i, 33
  %49 = getelementptr inbounds nuw i8, ptr %47, i64 %.010.i33.i
  %50 = load i8, ptr %49, align 1, !tbaa !84
  %51 = zext i8 %50 to i64
  %52 = xor i64 %48, %51
  %53 = add nuw nsw i64 %.010.i33.i, 1
  %exitcond.not.i35.i = icmp eq i64 %53, 32
  br i1 %exitcond.not.i35.i, label %.loopexit.i, label %.lr.ph.i32.i

.lr.ph.i37.i:                                     ; preds = %40, %.lr.ph.i37.i
  %.010.i38.i = phi i64 [ %59, %.lr.ph.i37.i ], [ 0, %40 ]
  %.089.i39.i = phi i64 [ %58, %.lr.ph.i37.i ], [ %36, %40 ]
  %54 = mul i64 %.089.i39.i, 33
  %55 = getelementptr inbounds nuw i8, ptr %43, i64 %.010.i38.i
  %56 = load i8, ptr %55, align 1, !tbaa !84
  %57 = zext i8 %56 to i64
  %58 = xor i64 %54, %57
  %59 = add nuw nsw i64 %.010.i38.i, 1
  %exitcond.not.i40.i = icmp eq i64 %59, 8
  br i1 %exitcond.not.i40.i, label %.loopexit.i, label %.lr.ph.i37.i

.loopexit.i:                                      ; preds = %.lr.ph.i37.i, %.lr.ph.i32.i, %40, %dt_hash.exit31.i, %28
  %.3.i = phi i64 [ %.053.i, %28 ], [ %36, %dt_hash.exit31.i ], [ %36, %40 ], [ %52, %.lr.ph.i32.i ], [ %58, %.lr.ph.i37.i ]
  %60 = getelementptr inbounds nuw i8, ptr %.02254.i, i64 8
  %.022.i = load ptr, ptr %60, align 8, !tbaa !85
  %.not.i = icmp eq ptr %.022.i, null
  br i1 %.not.i, label %_dev_pixelpipe_cache_basichash.exit, label %.lr.ph.i

_dev_pixelpipe_cache_basichash.exit:              ; preds = %.lr.ph.i, %.loopexit.i, %dt_hash.exit.i
  %.0.lcssa.i = phi i64 [ %16, %dt_hash.exit.i ], [ %.3.i, %.loopexit.i ], [ %.053.i, %.lr.ph.i ]
  call void @llvm.lifetime.end.p0(i64 12, ptr nonnull %5) #27
  br label %.lr.ph.i6

.lr.ph.i6:                                        ; preds = %.lr.ph.i6, %_dev_pixelpipe_cache_basichash.exit
  %.010.i = phi i64 [ %66, %.lr.ph.i6 ], [ 0, %_dev_pixelpipe_cache_basichash.exit ]
  %.089.i = phi i64 [ %65, %.lr.ph.i6 ], [ %.0.lcssa.i, %_dev_pixelpipe_cache_basichash.exit ]
  %61 = mul i64 %.089.i, 33
  %62 = getelementptr inbounds nuw i8, ptr %1, i64 %.010.i
  %63 = load i8, ptr %62, align 1, !tbaa !84
  %64 = zext i8 %63 to i64
  %65 = xor i64 %61, %64
  %66 = add nuw nsw i64 %.010.i, 1
  %exitcond.not.i = icmp eq i64 %66, 20
  br i1 %exitcond.not.i, label %dt_hash.exit, label %.lr.ph.i6

dt_hash.exit:                                     ; preds = %.lr.ph.i6
  %67 = getelementptr inbounds nuw i8, ptr %2, i64 560
  br label %.lr.ph.i7

.lr.ph.i7:                                        ; preds = %.lr.ph.i7, %dt_hash.exit
  %.010.i8 = phi i64 [ %73, %.lr.ph.i7 ], [ 0, %dt_hash.exit ]
  %.089.i9 = phi i64 [ %72, %.lr.ph.i7 ], [ %65, %dt_hash.exit ]
  %68 = mul i64 %.089.i9, 33
  %69 = getelementptr inbounds nuw i8, ptr %67, i64 %.010.i8
  %70 = load i8, ptr %69, align 1, !tbaa !84
  %71 = zext i8 %70 to i64
  %72 = xor i64 %68, %71
  %73 = add nuw nsw i64 %.010.i8, 1
  %exitcond.not.i10 = icmp eq i64 %73, 8
  br i1 %exitcond.not.i10, label %dt_hash.exit11, label %.lr.ph.i7

dt_hash.exit11:                                   ; preds = %.lr.ph.i7
  ret i64 %72
}